; Function Attrs: inlinehint mustprogress nounwind uwtable
define internal void @_ZN5faiss12_GLOBAL__N_117CodeArrayIteratorD0Ev(ptr noundef nonnull align 8 dereferenceable(80) initializes((0, 8)) %0) unnamed_addr #0 align 2 personality ptr @__gxx_personality_v0 {
  store ptr getelementptr inbounds nuw inrange(-16, 40) (i8, ptr @_ZTVN5faiss12_GLOBAL__N_117CodeArrayIteratorE, i64 16), ptr %0, align 8, !tbaa !4
  %2 = getelementptr inbounds nuw i8, ptr %0, i64 48
  %3 = load ptr, ptr %2, align 8, !tbaa !35
  %4 = getelementptr inbounds nuw i8, ptr %0, i64 64
  %5 = load i64, ptr %4, align 8, !tbaa !37
  %6 = getelementptr inbounds nuw i8, ptr %0, i64 56
  %7 = load ptr, ptr %6, align 8, !tbaa !36
  %8 = load ptr, ptr %3, align 8, !tbaa !4
  %9 = getelementptr inbounds nuw i8, ptr %8, i64 48
  %10 = load ptr, ptr %9, align 8
  invoke void %10(ptr noundef nonnull align 8 dereferenceable(25) %3, i64 noundef %5, ptr noundef %7)
          to label %_ZN5faiss13InvertedLists9ScopedIdsD2Ev.exit.i unwind label %11

11:                                               ; preds = %1
  %12 = landingpad { ptr, i32 }
          catch ptr null
  %13 = extractvalue { ptr, i32 } %12, 0
  tail call void @__clang_call_terminate(ptr %13) #29
  unreachable

_ZN5faiss13InvertedLists9ScopedIdsD2Ev.exit.i:    ; preds = %1
  %14 = getelementptr inbounds nuw i8, ptr %0, i64 24
  %15 = load ptr, ptr %14, align 8, !tbaa !32
  %16 = getelementptr inbounds nuw i8, ptr %0, i64 40
  %17 = load i64, ptr %16, align 8, !tbaa !34
  %18 = getelementptr inbounds nuw i8, ptr %0, i64 32
  %19 = load ptr, ptr %18, align 8, !tbaa !33
  %20 = load ptr, ptr %15, align 8, !tbaa !4
  %21 = getelementptr inbounds nuw i8, ptr %20, i64 40
  %22 = load ptr, ptr %21, align 8
  invoke void %22(ptr noundef nonnull align 8 dereferenceable(25) %15, i64 noundef %17, ptr noundef %19)
          to label %_ZN5faiss12_GLOBAL__N_117CodeArrayIteratorD2Ev.exit unwind label %23

23:                                               ; preds = %_ZN5faiss13InvertedLists9ScopedIdsD2Ev.exit.i
  %24 = landingpad { ptr, i32 }
          catch ptr null
  %25 = extractvalue { ptr, i32 } %24, 0
  tail call void @__clang_call_terminate(ptr %25) #29
  unreachable

_ZN5faiss12_GLOBAL__N_117CodeArrayIteratorD2Ev.exit: ; preds = %_ZN5faiss13InvertedLists9ScopedIdsD2Ev.exit.i
  tail call void @_ZdlPvm(ptr noundef nonnull %0, i64 noundef 80) #31
  ret void
}